; Function Attrs: nounwind uwtable
define void @Wlc_ObjSetCi(ptr noundef captures(none) %0, ptr noundef %1) local_unnamed_addr #3 {
  %3 = getelementptr i8, ptr %0, i64 20
  %.val22 = load i32, ptr %3, align 4
  %4 = getelementptr i8, ptr %0, i64 52
  %.val24 = load i32, ptr %4, align 4
  %5 = icmp eq i32 %.val22, %.val24
  br i1 %5, label %9, label %6

6:                                                ; preds = %2
  %7 = load i16, ptr %1, align 8
  %8 = and i16 %7, 63
  %.not = icmp eq i16 %8, 1
  br i1 %.not, label %48, label %9

9:                                                ; preds = %6, %2
  %10 = getelementptr inbounds nuw i8, ptr %0, i64 48
  %11 = getelementptr inbounds nuw i8, ptr %1, i64 20
  store i32 %.val24, ptr %11, align 4
  %12 = getelementptr i8, ptr %0, i64 640
  %.val26 = load ptr, ptr %12, align 8
  %13 = ptrtoint ptr %1 to i64
  %14 = ptrtoint ptr %.val26 to i64
  %15 = sub i64 %13, %14
  %16 = sdiv exact i64 %15, 24
  %17 = trunc i64 %16 to i32
  %18 = load i32, ptr %4, align 4
  %19 = load i32, ptr %10, align 8
  %20 = icmp eq i32 %18, %19
  br i1 %20, label %21, label %.Vec_IntGrow.exit10_crit_edge.i

.Vec_IntGrow.exit10_crit_edge.i:                  ; preds = %9
  %.phi.trans.insert.i = getelementptr inbounds nuw i8, ptr %0, i64 56
  %.pre.i = load ptr, ptr %.phi.trans.insert.i, align 8
  br label %Vec_IntPush.exit

21:                                               ; preds = %9
  %22 = icmp slt i32 %18, 16
  br i1 %22, label %23, label %31

23:                                               ; preds = %21
  %24 = getelementptr inbounds nuw i8, ptr %0, i64 56
  %25 = load ptr, ptr %24, align 8
  %.not9.i.i = icmp eq ptr %25, null
  br i1 %.not9.i.i, label %28, label %26

26:                                               ; preds = %23
  %27 = tail call dereferenceable_or_null(64) ptr @realloc(ptr noundef nonnull %25, i64 noundef 64) #27
  br label %Vec_IntGrow.exit.i

28:                                               ; preds = %23
  %29 = tail call noalias dereferenceable_or_null(64) ptr @malloc(i64 noundef 64) #26
  br label %Vec_IntGrow.exit.i

Vec_IntGrow.exit.i:                               ; preds = %28, %26
  %30 = phi ptr [ %27, %26 ], [ %29, %28 ]
  store ptr %30, ptr %24, align 8
  store i32 16, ptr %10, align 8
  br label %Vec_IntPush.exit

31:                                               ; preds = %21
  %32 = shl nuw nsw i32 %18, 1
  %33 = getelementptr inbounds nuw i8, ptr %0, i64 56
  %34 = load ptr, ptr %33, align 8
  %.not9.i9.i = icmp eq ptr %34, null
  %35 = zext nneg i32 %32 to i64
  %36 = shl nuw nsw i64 %35, 2
  br i1 %.not9.i9.i, label %39, label %37

37:                                               ; preds = %31
  %38 = tail call ptr @realloc(ptr noundef nonnull %34, i64 noundef %36) #27
  br label %41

39:                                               ; preds = %31
  %40 = tail call noalias ptr @malloc(i64 noundef %36) #26
  br label %41

41:                                               ; preds = %39, %37
  %42 = phi ptr [ %38, %37 ], [ %40, %39 ]
  store ptr %42, ptr %33, align 8
  store i32 %32, ptr %10, align 8
  br label %Vec_IntPush.exit

Vec_IntPush.exit:                                 ; preds = %.Vec_IntGrow.exit10_crit_edge.i, %Vec_IntGrow.exit.i, %41
  %43 = phi ptr [ %.pre.i, %.Vec_IntGrow.exit10_crit_edge.i ], [ %42, %41 ], [ %30, %Vec_IntGrow.exit.i ]
  %44 = load i32, ptr %4, align 4
  %45 = add nsw i32 %44, 1
  store i32 %45, ptr %4, align 4
  %46 = sext i32 %44 to i64
  %47 = getelementptr inbounds i32, ptr %43, i64 %46
  store i32 %17, ptr %47, align 4
  br label %.critedge

48:                                               ; preds = %6
  %49 = getelementptr inbounds nuw i8, ptr %0, i64 48
  %50 = getelementptr i8, ptr %0, i64 640
  %.val27 = load ptr, ptr %50, align 8
  %51 = ptrtoint ptr %1 to i64
  %52 = ptrtoint ptr %.val27 to i64
  %53 = sub i64 %51, %52
  %54 = sdiv exact i64 %53, 24
  %55 = trunc i64 %54 to i32
  %56 = load i32, ptr %49, align 8
  %57 = icmp eq i32 %.val24, %56
  br i1 %57, label %58, label %.Vec_IntGrow.exit10_crit_edge.i.i

.Vec_IntGrow.exit10_crit_edge.i.i:                ; preds = %48
  %.phi.trans.insert.i.i = getelementptr inbounds nuw i8, ptr %0, i64 56
  %.pre.i.i = load ptr, ptr %.phi.trans.insert.i.i, align 8
  br label %Vec_IntPush.exit.i

58:                                               ; preds = %48
  %59 = icmp slt i32 %.val24, 16
  br i1 %59, label %60, label %68

60:                                               ; preds = %58
  %61 = getelementptr inbounds nuw i8, ptr %0, i64 56
  %62 = load ptr, ptr %61, align 8
  %.not9.i.i.i = icmp eq ptr %62, null
  br i1 %.not9.i.i.i, label %65, label %63

63:                                               ; preds = %60
  %64 = tail call dereferenceable_or_null(64) ptr @realloc(ptr noundef nonnull %62, i64 noundef 64) #27
  br label %Vec_IntGrow.exit.i.i

65:                                               ; preds = %60
  %66 = tail call noalias dereferenceable_or_null(64) ptr @malloc(i64 noundef 64) #26
  br label %Vec_IntGrow.exit.i.i

Vec_IntGrow.exit.i.i:                             ; preds = %65, %63
  %67 = phi ptr [ %64, %63 ], [ %66, %65 ]
  store ptr %67, ptr %61, align 8
  store i32 16, ptr %49, align 8
  br label %Vec_IntPush.exit.i

68:                                               ; preds = %58
  %69 = shl nuw nsw i32 %.val24, 1
  %70 = getelementptr inbounds nuw i8, ptr %0, i64 56
  %71 = load ptr, ptr %70, align 8
  %.not9.i9.i.i = icmp eq ptr %71, null
  %72 = zext nneg i32 %69 to i64
  %73 = shl nuw nsw i64 %72, 2
  br i1 %.not9.i9.i.i, label %76, label %74

74:                                               ; preds = %68
  %75 = tail call ptr @realloc(ptr noundef nonnull %71, i64 noundef %73) #27
  br label %78

76:                                               ; preds = %68
  %77 = tail call noalias ptr @malloc(i64 noundef %73) #26
  br label %78

78:                                               ; preds = %76, %74
  %79 = phi ptr [ %75, %74 ], [ %77, %76 ]
  store ptr %79, ptr %70, align 8
  store i32 %69, ptr %49, align 8
  br label %Vec_IntPush.exit.i

Vec_IntPush.exit.i:                               ; preds = %78, %Vec_IntGrow.exit.i.i, %.Vec_IntGrow.exit10_crit_edge.i.i
  %80 = phi ptr [ %.pre.i.i, %.Vec_IntGrow.exit10_crit_edge.i.i ], [ %79, %78 ], [ %67, %Vec_IntGrow.exit.i.i ]
  %81 = load i32, ptr %4, align 4
  %82 = add nsw i32 %81, 1
  store i32 %82, ptr %4, align 4
  %83 = sext i32 %81 to i64
  %84 = getelementptr inbounds i32, ptr %80, i64 %83
  store i32 0, ptr %84, align 4
  %85 = load i32, ptr %4, align 4
  %.011.i = add nsw i32 %85, -1
  %86 = icmp sgt i32 %.011.i, %.val22
  br i1 %86, label %.lr.ph.i, label %Vec_IntInsert.exit

.lr.ph.i:                                         ; preds = %Vec_IntPush.exit.i
  %87 = getelementptr inbounds nuw i8, ptr %0, i64 56
  %88 = sext i32 %85 to i64
  %89 = add nsw i64 %88, -1
  %90 = sext i32 %.val22 to i64
  br label %91

91:                                               ; preds = %91, %.lr.ph.i
  %indvars.iv15.i = phi i64 [ %88, %.lr.ph.i ], [ %indvars.iv.next16.i, %91 ]
  %indvars.iv.i = phi i64 [ %89, %.lr.ph.i ], [ %indvars.iv.next.i, %91 ]
  %92 = load ptr, ptr %87, align 8
  %93 = getelementptr i32, ptr %92, i64 %indvars.iv15.i
  %94 = getelementptr i8, ptr %93, i64 -8
  %95 = load i32, ptr %94, align 4
  %96 = getelementptr inbounds i32, ptr %92, i64 %indvars.iv.i
  store i32 %95, ptr %96, align 4
  %indvars.iv.next.i = add nsw i64 %indvars.iv.i, -1
  %97 = icmp sgt i64 %indvars.iv.next.i, %90
  %indvars.iv.next16.i = add nsw i64 %indvars.iv15.i, -1
  br i1 %97, label %91, label %._crit_edge.loopexit.i, !llvm.loop !4

._crit_edge.loopexit.i:                           ; preds = %91
  %98 = trunc nsw i64 %indvars.iv.next.i to i32
  br label %Vec_IntInsert.exit

Vec_IntInsert.exit:                               ; preds = %Vec_IntPush.exit.i, %._crit_edge.loopexit.i
  %.0.lcssa.i = phi i32 [ %.011.i, %Vec_IntPush.exit.i ], [ %98, %._crit_edge.loopexit.i ]
  %99 = getelementptr i8, ptr %0, i64 56
  %100 = load ptr, ptr %99, align 8
  %101 = sext i32 %.0.lcssa.i to i64
  %102 = getelementptr inbounds i32, ptr %100, i64 %101
  store i32 %55, ptr %102, align 4
  %.val2538 = load i32, ptr %4, align 4
  %103 = icmp sgt i32 %.val2538, 0
  br i1 %103, label %.lr.ph, label %.critedge

.lr.ph:                                           ; preds = %Vec_IntInsert.exit, %.lr.ph
  %indvars.iv = phi i64 [ %indvars.iv.next, %.lr.ph ], [ 0, %Vec_IntInsert.exit ]
  %.val29 = load ptr, ptr %99, align 8
  %.val30 = load ptr, ptr %50, align 8
  %104 = getelementptr inbounds nuw i32, ptr %.val29, i64 %indvars.iv
  %105 = load i32, ptr %104, align 4
  %106 = sext i32 %105 to i64
  %107 = getelementptr inbounds %struct.Wlc_Obj_t_, ptr %.val30, i64 %106
  %108 = getelementptr inbounds nuw i8, ptr %107, i64 20
  %109 = trunc nuw nsw i64 %indvars.iv to i32
  store i32 %109, ptr %108, align 4
  %indvars.iv.next = add nuw nsw i64 %indvars.iv, 1
  %.val25 = load i32, ptr %4, align 4
  %110 = sext i32 %.val25 to i64
  %111 = icmp slt i64 %indvars.iv.next, %110
  br i1 %111, label %.lr.ph, label %.critedge, !llvm.loop !6

.critedge:                                        ; preds = %.lr.ph, %Vec_IntInsert.exit, %Vec_IntPush.exit
  %112 = load i16, ptr %1, align 8
  %113 = and i16 %112, 63
  %114 = icmp eq i16 %113, 1
  br i1 %114, label %115, label %153

115:                                              ; preds = %.critedge
  %116 = getelementptr inbounds nuw i8, ptr %0, i64 16
  %117 = getelementptr i8, ptr %0, i64 640
  %.val28 = load ptr, ptr %117, align 8
  %118 = ptrtoint ptr %1 to i64
  %119 = ptrtoint ptr %.val28 to i64
  %120 = sub i64 %118, %119
  %121 = sdiv exact i64 %120, 24
  %122 = trunc i64 %121 to i32
  %123 = load i32, ptr %3, align 4
  %124 = load i32, ptr %116, align 8
  %125 = icmp eq i32 %123, %124
  br i1 %125, label %126, label %.Vec_IntGrow.exit10_crit_edge.i31

.Vec_IntGrow.exit10_crit_edge.i31:                ; preds = %115
  %.phi.trans.insert.i32 = getelementptr inbounds nuw i8, ptr %0, i64 24
  %.pre.i33 = load ptr, ptr %.phi.trans.insert.i32, align 8
  br label %Vec_IntPush.exit37

126:                                              ; preds = %115
  %127 = icmp slt i32 %123, 16
  br i1 %127, label %128, label %136

128:                                              ; preds = %126
  %129 = getelementptr inbounds nuw i8, ptr %0, i64 24
  %130 = load ptr, ptr %129, align 8
  %.not9.i.i35 = icmp eq ptr %130, null
  br i1 %.not9.i.i35, label %133, label %131

131:                                              ; preds = %128
  %132 = tail call dereferenceable_or_null(64) ptr @realloc(ptr noundef nonnull %130, i64 noundef 64) #27
  br label %Vec_IntGrow.exit.i36

133:                                              ; preds = %128
  %134 = tail call noalias dereferenceable_or_null(64) ptr @malloc(i64 noundef 64) #26
  br label %Vec_IntGrow.exit.i36

Vec_IntGrow.exit.i36:                             ; preds = %133, %131
  %135 = phi ptr [ %132, %131 ], [ %134, %133 ]
  store ptr %135, ptr %129, align 8
  store i32 16, ptr %116, align 8
  br label %Vec_IntPush.exit37

136:                                              ; preds = %126
  %137 = shl nuw nsw i32 %123, 1
  %138 = getelementptr inbounds nuw i8, ptr %0, i64 24
  %139 = load ptr, ptr %138, align 8
  %.not9.i9.i34 = icmp eq ptr %139, null
  %140 = zext nneg i32 %137 to i64
  %141 = shl nuw nsw i64 %140, 2
  br i1 %.not9.i9.i34, label %144, label %142

142:                                              ; preds = %136
  %143 = tail call ptr @realloc(ptr noundef nonnull %139, i64 noundef %141) #27
  br label %146

144:                                              ; preds = %136
  %145 = tail call noalias ptr @malloc(i64 noundef %141) #26
  br label %146

146:                                              ; preds = %144, %142
  %147 = phi ptr [ %143, %142 ], [ %145, %144 ]
  store ptr %147, ptr %138, align 8
  store i32 %137, ptr %116, align 8
  br label %Vec_IntPush.exit37

Vec_IntPush.exit37:                               ; preds = %.Vec_IntGrow.exit10_crit_edge.i31, %Vec_IntGrow.exit.i36, %146
  %148 = phi ptr [ %.pre.i33, %.Vec_IntGrow.exit10_crit_edge.i31 ], [ %147, %146 ], [ %135, %Vec_IntGrow.exit.i36 ]
  %149 = load i32, ptr %3, align 4
  %150 = add nsw i32 %149, 1
  store i32 %150, ptr %3, align 4
  %151 = sext i32 %149 to i64
  %152 = getelementptr inbounds i32, ptr %148, i64 %151
  store i32 %122, ptr %152, align 4
  br label %153

153:                                              ; preds = %Vec_IntPush.exit37, %.critedge
  ret void
}